; Function Attrs: nounwind uwtable
define dso_local i32 @unit_test(i32 noundef %0, ptr noundef %1) local_unnamed_addr #0 {
  %puts = tail call i32 @puts(ptr nonnull dereferenceable(1) @str)
  %3 = load ptr, ptr @stdout, align 8, !tbaa !4
  %4 = tail call i32 @fflush(ptr noundef %3)
  br label %5

5:                                                ; preds = %11, %2
  %.0820.i = phi i32 [ 0, %2 ], [ %12, %11 ]
  %6 = tail call noalias ptr @fopen(ptr noundef nonnull @.str.10, ptr noundef nonnull @.str.11)
  %.not.i = icmp eq ptr %6, null
  br i1 %.not.i, label %7, label %ChangeToWolfRoot.exit

7:                                                ; preds = %5
  %8 = tail call i32 @chdir(ptr noundef nonnull @.str.12) #8
  %9 = icmp slt i32 %8, 0
  br i1 %9, label %10, label %11

10:                                               ; preds = %7
  %puts.i = tail call i32 @puts(ptr nonnull dereferenceable(1) @str.1)
  br label %.loopexit.i

11:                                               ; preds = %7
  %12 = add nuw nsw i32 %.0820.i, 1
  %exitcond.not.i = icmp eq i32 %12, 6
  br i1 %exitcond.not.i, label %.loopexit.i, label %5, !llvm.loop !9

.loopexit.i:                                      ; preds = %11, %10
  tail call fastcc void @err_sys() #9
  unreachable

ChangeToWolfRoot.exit:                            ; preds = %5
  %13 = tail call i32 @fclose(ptr noundef nonnull %6)
  %14 = icmp sgt i32 %0, 1
  br i1 %14, label %.lr.ph, label %._crit_edge

.lr.ph:                                           ; preds = %ChangeToWolfRoot.exit, %46
  %.02358 = phi ptr [ %15, %46 ], [ %1, %ChangeToWolfRoot.exit ]
  %.02457 = phi i32 [ %47, %46 ], [ %0, %ChangeToWolfRoot.exit ]
  %15 = getelementptr inbounds nuw i8, ptr %.02358, i64 8
  %16 = load ptr, ptr %15, align 8, !tbaa !11
  %17 = load i8, ptr %16, align 1, !tbaa !13
  %.not = icmp eq i8 %17, 45
  br i1 %.not, label %sub_1, label %._crit_edge

sub_1:                                            ; preds = %.lr.ph
  %18 = getelementptr inbounds nuw i8, ptr %16, i64 1
  %19 = load i8, ptr %18, align 1
  %.not64 = icmp eq i8 %19, 63
  br i1 %.not64, label %.tail, label %.tail.thread

.tail:                                            ; preds = %sub_1
  %20 = getelementptr inbounds nuw i8, ptr %16, i64 2
  %21 = load i8, ptr %20, align 1
  %22 = icmp eq i8 %21, 0
  br i1 %22, label %25, label %.tail.thread

.tail.thread:                                     ; preds = %sub_1, %.tail
  %23 = tail call i32 @strcmp(ptr noundef nonnull dereferenceable(1) %16, ptr noundef nonnull dereferenceable(7) @.str.2) #10
  %24 = icmp eq i32 %23, 0
  br i1 %24, label %25, label %26

25:                                               ; preds = %.tail.thread, %.tail
  %puts.i42 = tail call i32 @puts(ptr nonnull dereferenceable(1) @str.2)
  %puts1.i = tail call i32 @puts(ptr nonnull dereferenceable(1) @str.3)
  %puts2.i = tail call i32 @puts(ptr nonnull dereferenceable(1) @str.4)
  %puts3.i = tail call i32 @puts(ptr nonnull dereferenceable(1) @str.5)
  %puts4.i = tail call i32 @puts(ptr nonnull dereferenceable(1) @str.6)
  %puts5.i = tail call i32 @puts(ptr nonnull dereferenceable(1) @str.9)
  %puts6.i = tail call i32 @puts(ptr nonnull dereferenceable(1) @str.8)
  %puts7.i = tail call i32 @puts(ptr nonnull dereferenceable(1) @str.9)
  %puts8.i = tail call i32 @puts(ptr nonnull dereferenceable(1) @str.10)
  br label %.thread46

26:                                               ; preds = %.tail.thread
  %27 = tail call i32 @strcmp(ptr noundef nonnull dereferenceable(1) %16, ptr noundef nonnull dereferenceable(7) @.str.3) #10
  %28 = icmp eq i32 %27, 0
  br i1 %28, label %29, label %30

29:                                               ; preds = %26
  tail call void @ApiTest_PrintTestCases() #8
  br label %.thread46

30:                                               ; preds = %26
  %31 = tail call i32 @strcmp(ptr noundef nonnull dereferenceable(1) %16, ptr noundef nonnull dereferenceable(6) @.str.4) #10
  %32 = icmp eq i32 %31, 0
  br i1 %32, label %46, label %33

33:                                               ; preds = %30
  %34 = tail call i32 @strcmp(ptr noundef nonnull dereferenceable(1) %16, ptr noundef nonnull dereferenceable(9) @.str.5) #10
  %35 = icmp eq i32 %34, 0
  br i1 %35, label %46, label %36

36:                                               ; preds = %33
  %37 = getelementptr inbounds nuw i8, ptr %16, i64 1
  %38 = load i8, ptr %37, align 1, !tbaa !13
  %39 = add i8 %38, -48
  %or.cond41 = icmp ult i8 %39, 10
  br i1 %or.cond41, label %40, label %44

40:                                               ; preds = %36
  %41 = tail call i64 @strtol(ptr noundef nonnull captures(none) %37, ptr noundef null, i32 noundef 10) #8
  %42 = trunc i64 %41 to i32
  %43 = tail call i32 @ApiTest_RunIdx(i32 noundef %42) #8
  %.not35 = icmp eq i32 %43, 0
  br i1 %.not35, label %46, label %.thread

44:                                               ; preds = %36
  %45 = tail call i32 @ApiTest_RunName(ptr noundef nonnull %37) #8
  %.not34 = icmp eq i32 %45, 0
  br i1 %.not34, label %46, label %.thread

46:                                               ; preds = %44, %40, %33, %30
  %apiTesting.sink = phi ptr [ @allTesting, %30 ], [ @apiTesting, %33 ], [ @allTesting, %40 ], [ @allTesting, %44 ]
  store i32 0, ptr %apiTesting.sink, align 4, !tbaa !14
  %47 = add nsw i32 %.02457, -1
  %48 = icmp sgt i32 %.02457, 2
  br i1 %48, label %.lr.ph, label %._crit_edge, !llvm.loop !16

._crit_edge:                                      ; preds = %46, %.lr.ph, %ChangeToWolfRoot.exit
  %.024.lcssa = phi i32 [ %0, %ChangeToWolfRoot.exit ], [ %.02457, %.lr.ph ], [ 1, %46 ]
  %.023.lcssa = phi ptr [ %1, %ChangeToWolfRoot.exit ], [ %.02358, %.lr.ph ], [ %15, %46 ]
  %49 = load i32, ptr @apiTesting, align 4, !tbaa !14
  %.not36 = icmp eq i32 %49, 0
  br i1 %.not36, label %55, label %50

50:                                               ; preds = %._crit_edge
  %51 = tail call i32 @ApiTest() #8
  %52 = icmp eq i32 %51, 0
  %53 = load i32, ptr @allTesting, align 4
  %54 = icmp ne i32 %53, 0
  %or.cond = select i1 %52, i1 %54, i1 false
  br i1 %or.cond, label %56, label %71

55:                                               ; preds = %._crit_edge
  %.old = load i32, ptr @allTesting, align 4, !tbaa !14
  %.old1.not = icmp eq i32 %.old, 0
  br i1 %.old1.not, label %.thread46, label %56

56:                                               ; preds = %50, %55
  %57 = tail call i32 @HashTest() #8
  %.not37 = icmp eq i32 %57, 0
  br i1 %.not37, label %61, label %58

58:                                               ; preds = %56
  %59 = load ptr, ptr @stderr, align 8, !tbaa !4
  %60 = tail call i32 (ptr, ptr, ...) @fprintf(ptr noundef %59, ptr noundef nonnull @.str.6, i32 noundef %57) #11
  br label %.thread

61:                                               ; preds = %56
  %62 = tail call i32 @w64wrapper_test() #8
  %.not38 = icmp eq i32 %62, 0
  br i1 %.not38, label %66, label %63

63:                                               ; preds = %61
  %64 = load ptr, ptr @stderr, align 8, !tbaa !4
  %65 = tail call i32 (ptr, ptr, ...) @fprintf(ptr noundef %64, ptr noundef nonnull @.str.7, i32 noundef %62) #11
  br label %.thread

66:                                               ; preds = %61
  tail call void @SrpTest() #8
  %67 = tail call i32 @SuiteTest(i32 noundef %.024.lcssa, ptr noundef %.023.lcssa) #8
  %.not39 = icmp eq i32 %67, 0
  br i1 %.not39, label %.thread46, label %68

68:                                               ; preds = %66
  %69 = load ptr, ptr @stderr, align 8, !tbaa !4
  %70 = tail call i32 (ptr, ptr, ...) @fprintf(ptr noundef %69, ptr noundef nonnull @.str.8, i32 noundef %67) #11
  br label %.thread

71:                                               ; preds = %50
  br i1 %52, label %.thread46, label %.thread

.thread46:                                        ; preds = %29, %25, %55, %66, %71
  %72 = tail call i32 @puts(ptr noundef nonnull dereferenceable(1) @.str.9)
  %73 = load ptr, ptr @stdout, align 8, !tbaa !4
  %74 = tail call i32 @fflush(ptr noundef %73)
  br label %.thread

.thread:                                          ; preds = %44, %40, %68, %63, %58, %.thread46, %71
  %.144 = phi i32 [ 0, %.thread46 ], [ %51, %71 ], [ %67, %68 ], [ %62, %63 ], [ %57, %58 ], [ %43, %40 ], [ %45, %44 ]
  ret i32 %.144
}